target datalayout = "e-m:e-p270:32:32-p271:32:32-p272:64:64-i64:64-i128:128-f80:128-n8:16:32:64-S128"
target triple = "x86_64-pc-linux-gnu"

%struct.ExpireMeta = type { i32, i16, i16, ptr }
%struct.redisObject = type { i32, i32, ptr }
%struct.listpackEx = type { %struct.ExpireMeta, ptr, ptr }
%struct.sdshdr8 = type { i8, i8, i8, [0 x i8] }
%struct.sdshdr16 = type <{ i16, i16, i8, [0 x i8] }>
%struct.sdshdr32 = type <{ i32, i32, i8, [0 x i8] }>
%struct.sdshdr64 = type <{ i64, i64, i8, [0 x i8] }>

@.str.2 = private unnamed_addr constant [9 x i8] c"t_hash.c\00", align 1
@.str.7 = private unnamed_addr constant [13 x i8] c"vptr != NULL\00", align 1
@.str.11 = private unnamed_addr constant [22 x i8] c"Unknown hash encoding\00", align 1
@.str.17 = private unnamed_addr constant [5 x i8] c"tptr\00", align 1

; Function Attrs: inlinehint nounwind uwtable
define internal i64 @sdslen(ptr noundef %0) #7 {
  %2 = alloca i64, align 8
  %3 = alloca ptr, align 8
  %4 = alloca i8, align 1
  %5 = alloca i32, align 4
  store ptr %0, ptr %3, align 8, !tbaa !33
  call void @llvm.lifetime.start.p0(i64 1, ptr %4) #12
  %6 = load ptr, ptr %3, align 8, !tbaa !33
  %7 = getelementptr inbounds i8, ptr %6, i64 -1
  %8 = load i8, ptr %7, align 1, !tbaa !95
  store i8 %8, ptr %4, align 1, !tbaa !95
  %9 = load i8, ptr %4, align 1, !tbaa !95
  %10 = zext i8 %9 to i32
  %11 = and i32 %10, 7
  switch i32 %11, label %40 [
    i32 0, label %12
    i32 1, label %17
    i32 2, label %23
    i32 3, label %29
    i32 4, label %35
  ]

12:                                               ; preds = %1
  %13 = load i8, ptr %4, align 1, !tbaa !95
  %14 = zext i8 %13 to i32
  %15 = ashr i32 %14, 3
  %16 = sext i32 %15 to i64
  store i64 %16, ptr %2, align 8
  store i32 1, ptr %5, align 4
  br label %41

17:                                               ; preds = %1
  %18 = load ptr, ptr %3, align 8, !tbaa !33
  %19 = getelementptr inbounds i8, ptr %18, i64 -3
  %20 = getelementptr inbounds nuw %struct.sdshdr8, ptr %19, i32 0, i32 0
  %21 = load i8, ptr %20, align 1, !tbaa !95
  %22 = zext i8 %21 to i64
  store i64 %22, ptr %2, align 8
  store i32 1, ptr %5, align 4
  br label %41

23:                                               ; preds = %1
  %24 = load ptr, ptr %3, align 8, !tbaa !33
  %25 = getelementptr inbounds i8, ptr %24, i64 -5
  %26 = getelementptr inbounds nuw %struct.sdshdr16, ptr %25, i32 0, i32 0
  %27 = load i16, ptr %26, align 1, !tbaa !96
  %28 = zext i16 %27 to i64
  store i64 %28, ptr %2, align 8
  store i32 1, ptr %5, align 4
  br label %41

29:                                               ; preds = %1
  %30 = load ptr, ptr %3, align 8, !tbaa !33
  %31 = getelementptr inbounds i8, ptr %30, i64 -9
  %32 = getelementptr inbounds nuw %struct.sdshdr32, ptr %31, i32 0, i32 0
  %33 = load i32, ptr %32, align 1, !tbaa !13
  %34 = zext i32 %33 to i64
  store i64 %34, ptr %2, align 8
  store i32 1, ptr %5, align 4
  br label %41

35:                                               ; preds = %1
  %36 = load ptr, ptr %3, align 8, !tbaa !33
  %37 = getelementptr inbounds i8, ptr %36, i64 -17
  %38 = getelementptr inbounds nuw %struct.sdshdr64, ptr %37, i32 0, i32 0
  %39 = load i64, ptr %38, align 1, !tbaa !31
  store i64 %39, ptr %2, align 8
  store i32 1, ptr %5, align 4
  br label %41

40:                                               ; preds = %1
  store i64 0, ptr %2, align 8
  store i32 1, ptr %5, align 4
  br label %41

41:                                               ; preds = %40, %35, %29, %23, %17, %12
  call void @llvm.lifetime.end.p0(i64 1, ptr %4) #12
  %42 = load i64, ptr %2, align 8
  ret i64 %42
}

; Function Attrs: nounwind uwtable
define dso_local i32 @hashTypeSetEx(ptr noundef %0, ptr noundef %1, i64 noundef %2, ptr noundef %3) #1 {
  %5 = alloca i32, align 4
  %6 = alloca ptr, align 8
  %7 = alloca ptr, align 8
  %8 = alloca i64, align 8
  %9 = alloca ptr, align 8
  %10 = alloca ptr, align 8
  %11 = alloca ptr, align 8
  %12 = alloca ptr, align 8
  %13 = alloca ptr, align 8
  %14 = alloca i32, align 4
  store ptr %0, ptr %6, align 8, !tbaa !15
  store ptr %1, ptr %7, align 8, !tbaa !33
  store i64 %2, ptr %8, align 8, !tbaa !31
  store ptr %3, ptr %9, align 8, !tbaa !87
  %15 = load ptr, ptr %6, align 8, !tbaa !15
  %16 = load i32, ptr %15, align 8
  %17 = lshr i32 %16, 4
  %18 = and i32 %17, 15
  %19 = icmp eq i32 %18, 12
  br i1 %19, label %20, label %87

20:                                               ; preds = %4
  call void @llvm.lifetime.start.p0(i64 8, ptr %10) #12
  store ptr null, ptr %10, align 8, !tbaa !33
  call void @llvm.lifetime.start.p0(i64 8, ptr %11) #12
  store ptr null, ptr %11, align 8, !tbaa !33
  call void @llvm.lifetime.start.p0(i64 8, ptr %12) #12
  store ptr null, ptr %12, align 8, !tbaa !33
  call void @llvm.lifetime.start.p0(i64 8, ptr %13) #12
  %21 = load ptr, ptr %6, align 8, !tbaa !15
  %22 = getelementptr inbounds nuw %struct.redisObject, ptr %21, i32 0, i32 2
  %23 = load ptr, ptr %22, align 8, !tbaa !17
  store ptr %23, ptr %13, align 8, !tbaa !19
  %24 = load ptr, ptr %13, align 8, !tbaa !19
  %25 = getelementptr inbounds nuw %struct.listpackEx, ptr %24, i32 0, i32 2
  %26 = load ptr, ptr %25, align 8, !tbaa !21
  %27 = call ptr @lpFirst(ptr noundef %26)
  store ptr %27, ptr %10, align 8, !tbaa !33
  %28 = load ptr, ptr %10, align 8, !tbaa !33
  %29 = icmp ne ptr %28, null
  br i1 %29, label %30, label %40

30:                                               ; preds = %20
  %31 = load ptr, ptr %13, align 8, !tbaa !19
  %32 = getelementptr inbounds nuw %struct.listpackEx, ptr %31, i32 0, i32 2
  %33 = load ptr, ptr %32, align 8, !tbaa !21
  %34 = load ptr, ptr %10, align 8, !tbaa !33
  %35 = load ptr, ptr %7, align 8, !tbaa !33
  %36 = load ptr, ptr %7, align 8, !tbaa !33
  %37 = call i64 @sdslen(ptr noundef %36)
  %38 = trunc i64 %37 to i32
  %39 = call ptr @lpFind(ptr noundef %33, ptr noundef %34, ptr noundef %35, i32 noundef %38, i32 noundef 2)
  store ptr %39, ptr %10, align 8, !tbaa !33
  br label %40

40:                                               ; preds = %30, %20
  %41 = load ptr, ptr %10, align 8, !tbaa !33
  %42 = icmp ne ptr %41, null
  br i1 %42, label %44, label %43

43:                                               ; preds = %40
  store i32 -2, ptr %5, align 4
  store i32 1, ptr %14, align 4
  br label %86

44:                                               ; preds = %40
  %45 = load ptr, ptr %13, align 8, !tbaa !19
  %46 = getelementptr inbounds nuw %struct.listpackEx, ptr %45, i32 0, i32 2
  %47 = load ptr, ptr %46, align 8, !tbaa !21
  %48 = load ptr, ptr %10, align 8, !tbaa !33
  %49 = call ptr @lpNext(ptr noundef %47, ptr noundef %48)
  store ptr %49, ptr %11, align 8, !tbaa !33
  %50 = load ptr, ptr %11, align 8, !tbaa !33
  %51 = icmp ne ptr %50, null
  %52 = xor i1 %51, true
  %53 = xor i1 %52, true
  %54 = zext i1 %53 to i32
  %55 = sext i32 %54 to i64
  %56 = call i64 @llvm.expect.i64(i64 %55, i64 1)
  %57 = icmp ne i64 %56, 0
  br i1 %57, label %58, label %59

58:                                               ; preds = %44
  br label %61

59:                                               ; preds = %44
  call void @_serverAssert(ptr noundef @.str.7, ptr noundef @.str.2, i32 noundef 1114)
  call void @abort() #14
  unreachable

60:                                               ; No predecessors!
  br label %61

61:                                               ; preds = %60, %58
  %62 = load ptr, ptr %13, align 8, !tbaa !19
  %63 = getelementptr inbounds nuw %struct.listpackEx, ptr %62, i32 0, i32 2
  %64 = load ptr, ptr %63, align 8, !tbaa !21
  %65 = load ptr, ptr %11, align 8, !tbaa !33
  %66 = call ptr @lpNext(ptr noundef %64, ptr noundef %65)
  store ptr %66, ptr %12, align 8, !tbaa !33
  %67 = load ptr, ptr %12, align 8, !tbaa !33
  %68 = icmp ne ptr %67, null
  %69 = xor i1 %68, true
  %70 = xor i1 %69, true
  %71 = zext i1 %70 to i32
  %72 = sext i32 %71 to i64
  %73 = call i64 @llvm.expect.i64(i64 %72, i64 1)
  %74 = icmp ne i64 %73, 0
  br i1 %74, label %75, label %76

75:                                               ; preds = %61
  br label %78

76:                                               ; preds = %61
  call void @_serverAssert(ptr noundef @.str.17, ptr noundef @.str.2, i32 noundef 1117)
  call void @abort() #14
  unreachable

77:                                               ; No predecessors!
  br label %78

78:                                               ; preds = %77, %75
  %79 = load ptr, ptr %9, align 8, !tbaa !87
  %80 = load ptr, ptr %7, align 8, !tbaa !33
  %81 = load ptr, ptr %10, align 8, !tbaa !33
  %82 = load ptr, ptr %11, align 8, !tbaa !33
  %83 = load ptr, ptr %12, align 8, !tbaa !33
  %84 = load i64, ptr %8, align 8, !tbaa !31
  %85 = call i32 @hashTypeSetExpiryListpack(ptr noundef %79, ptr noundef %80, ptr noundef %81, ptr noundef %82, ptr noundef %83, i64 noundef %84)
  store i32 %85, ptr %5, align 4
  store i32 1, ptr %14, align 4
  br label %86

86:                                               ; preds = %78, %43
  call void @llvm.lifetime.end.p0(i64 8, ptr %13) #12
  call void @llvm.lifetime.end.p0(i64 8, ptr %12) #12
  call void @llvm.lifetime.end.p0(i64 8, ptr %11) #12
  call void @llvm.lifetime.end.p0(i64 8, ptr %10) #12
  br label %99

87:                                               ; preds = %4
  %88 = load ptr, ptr %6, align 8, !tbaa !15
  %89 = load i32, ptr %88, align 8
  %90 = lshr i32 %89, 4
  %91 = and i32 %90, 15
  %92 = icmp eq i32 %91, 2
  br i1 %92, label %93, label %98

93:                                               ; preds = %87
  %94 = load ptr, ptr %9, align 8, !tbaa !87
  %95 = load ptr, ptr %7, align 8, !tbaa !33
  %96 = load i64, ptr %8, align 8, !tbaa !31
  %97 = call i32 @hashTypeSetExpiryHT(ptr noundef %94, ptr noundef %95, i64 noundef %96)
  store i32 %97, ptr %5, align 4
  br label %99

98:                                               ; preds = %87
  call void (ptr, i32, ptr, ...) @_serverPanic(ptr noundef @.str.2, i32 noundef 1125, ptr noundef @.str.11)
  call void @abort() #14
  unreachable

99:                                               ; preds = %93, %86
  %100 = load i32, ptr %5, align 4
  ret i32 %100
}