; Function Attrs: nounwind uwtable
define dso_local range(i32 -2, 3) i32 @hashTypeSetEx(ptr noundef readonly captures(none) %0, ptr noundef %1, i64 noundef %2, ptr noundef captures(none) %3) local_unnamed_addr #1 {
  %5 = load i32, ptr %0, align 8
  %6 = lshr i32 %5, 4
  %7 = and i32 %6, 15
  switch i32 %7, label %53 [
    i32 12, label %8
    i32 2, label %51
  ]

8:                                                ; preds = %4
  %9 = getelementptr inbounds nuw i8, ptr %0, i64 8
  %10 = load ptr, ptr %9, align 8, !tbaa !10
  %11 = getelementptr inbounds nuw i8, ptr %10, i64 24
  %12 = load ptr, ptr %11, align 8, !tbaa !15
  %13 = tail call ptr @lpFirst(ptr noundef %12) #16
  %.not = icmp eq ptr %13, null
  br i1 %.not, label %.thread, label %14

14:                                               ; preds = %8
  %15 = load ptr, ptr %11, align 8, !tbaa !15
  %16 = getelementptr inbounds i8, ptr %1, i64 -1
  %17 = load i8, ptr %16, align 1, !tbaa !5
  %18 = zext i8 %17 to i32
  %19 = and i32 %18, 7
  switch i32 %19, label %38 [
    i32 0, label %20
    i32 1, label %23
    i32 2, label %27
    i32 3, label %31
    i32 4, label %35
  ]

20:                                               ; preds = %14
  %21 = lshr i32 %18, 3
  %22 = zext nneg i32 %21 to i64
  br label %38

23:                                               ; preds = %14
  %24 = getelementptr inbounds i8, ptr %1, i64 -3
  %25 = load i8, ptr %24, align 1, !tbaa !5
  %26 = zext i8 %25 to i64
  br label %38

27:                                               ; preds = %14
  %28 = getelementptr inbounds i8, ptr %1, i64 -5
  %29 = load i16, ptr %28, align 1, !tbaa !8
  %30 = zext i16 %29 to i64
  br label %38

31:                                               ; preds = %14
  %32 = getelementptr inbounds i8, ptr %1, i64 -9
  %33 = load i32, ptr %32, align 1, !tbaa !65
  %34 = zext i32 %33 to i64
  br label %38

35:                                               ; preds = %14
  %36 = getelementptr inbounds i8, ptr %1, i64 -17
  %37 = load i64, ptr %36, align 1, !tbaa !28
  br label %38

38:                                               ; preds = %35, %31, %27, %23, %20, %14
  %.0.i = phi i64 [ %37, %35 ], [ %34, %31 ], [ %30, %27 ], [ %26, %23 ], [ %22, %20 ], [ 0, %14 ]
  %39 = trunc i64 %.0.i to i32
  %40 = tail call ptr @lpFind(ptr noundef %15, ptr noundef nonnull %13, ptr noundef nonnull %1, i32 noundef %39, i32 noundef 2) #16
  %.not31 = icmp eq ptr %40, null
  br i1 %.not31, label %.thread, label %41

41:                                               ; preds = %38
  %42 = load ptr, ptr %11, align 8, !tbaa !15
  %43 = tail call ptr @lpNext(ptr noundef %42, ptr noundef nonnull %40) #16
  %.not32 = icmp eq ptr %43, null
  br i1 %.not32, label %44, label %45, !prof !23

44:                                               ; preds = %41
  tail call void @_serverAssert(ptr noundef nonnull @.str.7, ptr noundef nonnull @.str.2, i32 noundef 1114) #16
  tail call void @abort() #17
  unreachable

45:                                               ; preds = %41
  %46 = load ptr, ptr %11, align 8, !tbaa !15
  %47 = tail call ptr @lpNext(ptr noundef %46, ptr noundef nonnull %43) #16
  %.not33 = icmp eq ptr %47, null
  br i1 %.not33, label %48, label %49, !prof !23

48:                                               ; preds = %45
  tail call void @_serverAssert(ptr noundef nonnull @.str.17, ptr noundef nonnull @.str.2, i32 noundef 1117) #16
  tail call void @abort() #17
  unreachable

49:                                               ; preds = %45
  %50 = tail call i32 @hashTypeSetExpiryListpack(ptr noundef %3, ptr noundef nonnull %1, ptr noundef nonnull %40, ptr noundef nonnull %43, ptr noundef nonnull %47, i64 noundef %2)
  br label %.thread

51:                                               ; preds = %4
  %52 = tail call i32 @hashTypeSetExpiryHT(ptr noundef %3, ptr noundef %1, i64 noundef %2)
  br label %.thread

53:                                               ; preds = %4
  tail call void (ptr, i32, ptr, ...) @_serverPanic(ptr noundef nonnull @.str.2, i32 noundef 1125, ptr noundef nonnull @.str.11) #16
  tail call void @abort() #17
  unreachable

.thread:                                          ; preds = %8, %49, %38, %51
  %.1 = phi i32 [ %52, %51 ], [ %50, %49 ], [ -2, %38 ], [ -2, %8 ]
  ret i32 %.1
}